; Function Attrs: mustprogress uwtable
define noundef i64 @_ZN8proxygen10HTTP2Codec17generatePingReplyERN5folly10IOBufQueueEm(ptr nocapture noundef nonnull readonly align 8 dereferenceable(1062) %this, ptr noundef nonnull align 8 dereferenceable(72) %writeBuf, i64 noundef %data) unnamed_addr #3 align 2 personality ptr @__gxx_personality_v0 {
entry:
  %ref.tmp5 = alloca %"class.google::LogMessage", align 8
  %0 = load ptr, ptr @_ZZN8proxygen10HTTP2Codec17generatePingReplyERN5folly10IOBufQueueEmE8vlocal__, align 8
  %cmp = icmp eq ptr %0, null
  br i1 %cmp, label %cond.true, label %cond.end

cond.true:                                        ; preds = %entry
  %call = tail call noundef zeroext i1 @_ZN6google11InitVLOG3__EPNS_8SiteFlagEPiPKci(ptr noundef nonnull @_ZZN8proxygen10HTTP2Codec17generatePingReplyERN5folly10IOBufQueueEmE8vlocal__, ptr noundef nonnull @_ZN3fLI7FLAGS_vE, ptr noundef nonnull @.str, i32 noundef 4)
  br i1 %call, label %cond.false4, label %cleanup.done

cond.end:                                         ; preds = %entry
  %1 = load i32, ptr %0, align 4
  %cmp2 = icmp sgt i32 %1, 3
  br i1 %cmp2, label %cond.false4, label %cleanup.done

cond.false4:                                      ; preds = %cond.true, %cond.end
  call void @_ZN6google10LogMessageC1EPKci(ptr noundef nonnull align 8 dereferenceable(96) %ref.tmp5, ptr noundef nonnull @.str, i32 noundef 1624)
  %call6 = invoke noundef nonnull align 8 dereferenceable(8) ptr @_ZN6google10LogMessage6streamEv(ptr noundef nonnull align 8 dereferenceable(96) %ref.tmp5)
          to label %invoke.cont unwind label %lpad

invoke.cont:                                      ; preds = %cond.false4
  %call8 = invoke noundef nonnull align 8 dereferenceable(8) ptr @_ZStlsISt11char_traitsIcEERSt13basic_ostreamIcT_ES5_PKc(ptr noundef nonnull align 8 dereferenceable(8) %call6, ptr noundef nonnull @.str.144)
          to label %invoke.cont7 unwind label %lpad

invoke.cont7:                                     ; preds = %invoke.cont
  %call10 = invoke noundef nonnull align 8 dereferenceable(8) ptr @_ZNSolsEm(ptr noundef nonnull align 8 dereferenceable(8) %call8, i64 noundef %data)
          to label %cleanup.action unwind label %lpad

cleanup.action:                                   ; preds = %invoke.cont7
  call void @_ZN6google10LogMessageD1Ev(ptr noundef nonnull align 8 dereferenceable(96) %ref.tmp5) #27
  br label %cleanup.done

cleanup.done:                                     ; preds = %cond.true, %cond.end, %cleanup.action
  %call16 = call noundef i64 @_ZN8proxygen5http29writePingERN5folly10IOBufQueueEmb(ptr noundef nonnull align 8 dereferenceable(72) %writeBuf, i64 noundef %data, i1 noundef zeroext true) #27
  %callback_.i = getelementptr inbounds i8, ptr %this, i64 32
  %2 = load ptr, ptr %callback_.i, align 8
  %tobool.not.i = icmp eq ptr %2, null
  br i1 %tobool.not.i, label %_ZN8proxygen10HTTP2Codec29generateHeaderCallbackWrapperEmNS_5http29FrameTypeEm.exit, label %if.then.i

if.then.i:                                        ; preds = %cleanup.done
  %vtable.i = load ptr, ptr %2, align 8
  %vfn.i = getelementptr inbounds i8, ptr %vtable.i, i64 184
  %3 = load ptr, ptr %vfn.i, align 8
  call void %3(ptr noundef nonnull align 8 dereferenceable(8) %2, i64 noundef 0, i8 noundef zeroext 6, i64 noundef %call16, i16 noundef zeroext 0)
  br label %_ZN8proxygen10HTTP2Codec29generateHeaderCallbackWrapperEmNS_5http29FrameTypeEm.exit

_ZN8proxygen10HTTP2Codec29generateHeaderCallbackWrapperEmNS_5http29FrameTypeEm.exit: ; preds = %cleanup.done, %if.then.i
  ret i64 %call16

lpad:                                             ; preds = %invoke.cont7, %invoke.cont, %cond.false4
  %4 = landingpad { ptr, i32 }
          cleanup
  call void @_ZN6google10LogMessageD1Ev(ptr noundef nonnull align 8 dereferenceable(96) %ref.tmp5) #27
  resume { ptr, i32 } %4
}